target datalayout = "e-m:e-p270:32:32-p271:32:32-p272:64:64-i64:64-i128:128-f80:128-n8:16:32:64-S128"
target triple = "x86_64-pc-linux-gnu"

%class.Timer = type { %"class.std::__cxx11::basic_string", i32, i64, i64, %"class.std::chrono::time_point", i64 }
%"class.std::__cxx11::basic_string" = type { %"struct.std::__cxx11::basic_string<char>::_Alloc_hider", i64, %union.anon }
%"struct.std::__cxx11::basic_string<char>::_Alloc_hider" = type { ptr }
%union.anon = type { i64, [8 x i8] }
%"class.std::chrono::time_point" = type { %"class.std::chrono::duration" }
%"class.std::chrono::duration" = type { i64 }
%"class.std::__cxx11::basic_stringstream" = type { %"class.std::basic_iostream.base", %"class.std::__cxx11::basic_stringbuf", %"class.std::basic_ios" }
%"class.std::basic_iostream.base" = type { %"class.std::basic_istream.base", %"class.std::basic_ostream.base" }
%"class.std::basic_istream.base" = type { ptr, i64 }
%"class.std::basic_ostream.base" = type { ptr }
%"class.std::__cxx11::basic_stringbuf" = type { %"class.std::basic_streambuf", i32, %"class.std::__cxx11::basic_string" }
%"class.std::basic_streambuf" = type { ptr, ptr, ptr, ptr, ptr, ptr, ptr, %"class.std::locale" }
%"class.std::locale" = type { ptr }
%"class.std::basic_ios" = type { %"class.std::ios_base", ptr, i8, i8, ptr, ptr, ptr, ptr }
%"class.std::ios_base" = type { ptr, i64, i64, i32, i32, i32, ptr, %"struct.std::ios_base::_Words", [8 x %"struct.std::ios_base::_Words"], i32, ptr, %"class.std::locale" }
%"struct.std::ios_base::_Words" = type { ptr, i64 }
%"struct.std::_Setw" = type { i32 }
%"struct.std::_Setprecision" = type { i32 }

@.str.1 = private unnamed_addr constant [2 x i8] c"\0A\00", align 1

; Function Attrs: mustprogress nounwind uwtable
define linkonce_odr i32 @_ZSt12setprecisioni(i32 noundef %0) #5 comdat {
  %2 = alloca %"struct.std::_Setprecision", align 4
  %3 = alloca i32, align 4
  store i32 %0, ptr %3, align 4
  %4 = getelementptr inbounds nuw %"struct.std::_Setprecision", ptr %2, i32 0, i32 0
  %5 = load i32, ptr %3, align 4
  store i32 %5, ptr %4, align 4
  %6 = getelementptr inbounds nuw %"struct.std::_Setprecision", ptr %2, i32 0, i32 0
  %7 = load i32, ptr %6, align 4
  ret i32 %7
}

; Function Attrs: mustprogress nounwind uwtable
define linkonce_odr i32 @_ZSt4setwi(i32 noundef %0) #5 comdat {
  %2 = alloca %"struct.std::_Setw", align 4
  %3 = alloca i32, align 4
  store i32 %0, ptr %3, align 4
  %4 = getelementptr inbounds nuw %"struct.std::_Setw", ptr %2, i32 0, i32 0
  %5 = load i32, ptr %3, align 4
  store i32 %5, ptr %4, align 4
  %6 = getelementptr inbounds nuw %"struct.std::_Setw", ptr %2, i32 0, i32 0
  %7 = load i32, ptr %6, align 4
  ret i32 %7
}

; Function Attrs: mustprogress uwtable
define void @_ZNK5Timer10DetailLineB5cxx11Ev(ptr dead_on_unwind noalias writable sret(%"class.std::__cxx11::basic_string") align 8 %0, ptr noundef nonnull align 8 dereferenceable(72) %1) #4 align 2 personality ptr @__gxx_personality_v0 {
  %3 = alloca ptr, align 8
  %4 = alloca ptr, align 8
  %5 = alloca %"class.std::__cxx11::basic_stringstream", align 8
  %6 = alloca %"struct.std::_Setw", align 4
  %7 = alloca ptr, align 8
  %8 = alloca i32, align 4
  %9 = alloca %"struct.std::_Setw", align 4
  %10 = alloca %"struct.std::_Setw", align 4
  %11 = alloca %"struct.std::_Setw", align 4
  %12 = alloca %"struct.std::_Setprecision", align 4
  %13 = alloca %"struct.std::_Setw", align 4
  %14 = alloca %"struct.std::_Setprecision", align 4
  %15 = alloca %"struct.std::_Setw", align 4
  %16 = alloca %"struct.std::_Setprecision", align 4
  store ptr %0, ptr %3, align 8
  store ptr %1, ptr %4, align 8
  %17 = load ptr, ptr %4, align 8
  call void @_ZNSt7__cxx1118basic_stringstreamIcSt11char_traitsIcESaIcEEC1Ev(ptr noundef nonnull align 8 dereferenceable(128) %5)
  %18 = getelementptr inbounds i8, ptr %5, i64 16
  %19 = invoke i32 @_ZSt4setwi(i32 noundef 15)
          to label %20 unwind label %136

20:                                               ; preds = %2
  %21 = getelementptr inbounds nuw %"struct.std::_Setw", ptr %6, i32 0, i32 0
  store i32 %19, ptr %21, align 4
  %22 = getelementptr inbounds nuw %"struct.std::_Setw", ptr %6, i32 0, i32 0
  %23 = load i32, ptr %22, align 4
  %24 = invoke noundef nonnull align 8 dereferenceable(8) ptr @_ZStlsIcSt11char_traitsIcEERSt13basic_ostreamIT_T0_ES6_St5_Setw(ptr noundef nonnull align 8 dereferenceable(8) %18, i32 %23)
          to label %25 unwind label %136

25:                                               ; preds = %20
  %26 = invoke noundef nonnull align 8 dereferenceable(8) ptr @_ZNSolsEPFRSt8ios_baseS0_E(ptr noundef nonnull align 8 dereferenceable(8) %24, ptr noundef @_ZSt4leftRSt8ios_base)
          to label %27 unwind label %136

27:                                               ; preds = %25
  %28 = getelementptr inbounds nuw %class.Timer, ptr %17, i32 0, i32 0
  %29 = invoke noundef nonnull align 8 dereferenceable(8) ptr @_ZStlsIcSt11char_traitsIcESaIcEERSt13basic_ostreamIT_T0_ES7_RKNSt7__cxx1112basic_stringIS4_S5_T1_EE(ptr noundef nonnull align 8 dereferenceable(8) %26, ptr noundef nonnull align 8 dereferenceable(32) %28)
          to label %30 unwind label %136

30:                                               ; preds = %27
  %31 = invoke i32 @_ZSt4setwi(i32 noundef 10)
          to label %32 unwind label %136

32:                                               ; preds = %30
  %33 = getelementptr inbounds nuw %"struct.std::_Setw", ptr %9, i32 0, i32 0
  store i32 %31, ptr %33, align 4
  %34 = getelementptr inbounds nuw %"struct.std::_Setw", ptr %9, i32 0, i32 0
  %35 = load i32, ptr %34, align 4
  %36 = invoke noundef nonnull align 8 dereferenceable(8) ptr @_ZStlsIcSt11char_traitsIcEERSt13basic_ostreamIT_T0_ES6_St5_Setw(ptr noundef nonnull align 8 dereferenceable(8) %29, i32 %35)
          to label %37 unwind label %136

37:                                               ; preds = %32
  %38 = invoke noundef nonnull align 8 dereferenceable(8) ptr @_ZNSolsEPFRSt8ios_baseS0_E(ptr noundef nonnull align 8 dereferenceable(8) %36, ptr noundef @_ZSt5rightRSt8ios_base)
          to label %39 unwind label %136

39:                                               ; preds = %37
  %40 = getelementptr inbounds nuw %class.Timer, ptr %17, i32 0, i32 1
  %41 = load i32, ptr %40, align 8
  %42 = invoke noundef nonnull align 8 dereferenceable(8) ptr @_ZNSolsEi(ptr noundef nonnull align 8 dereferenceable(8) %38, i32 noundef %41)
          to label %43 unwind label %136

43:                                               ; preds = %39
  %44 = invoke i32 @_ZSt4setwi(i32 noundef 11)
          to label %45 unwind label %136

45:                                               ; preds = %43
  %46 = getelementptr inbounds nuw %"struct.std::_Setw", ptr %10, i32 0, i32 0
  store i32 %44, ptr %46, align 4
  %47 = getelementptr inbounds nuw %"struct.std::_Setw", ptr %10, i32 0, i32 0
  %48 = load i32, ptr %47, align 4
  %49 = invoke noundef nonnull align 8 dereferenceable(8) ptr @_ZStlsIcSt11char_traitsIcEERSt13basic_ostreamIT_T0_ES6_St5_Setw(ptr noundef nonnull align 8 dereferenceable(8) %42, i32 %48)
          to label %50 unwind label %136

50:                                               ; preds = %45
  %51 = invoke noundef nonnull align 8 dereferenceable(8) ptr @_ZNSolsEPFRSt8ios_baseS0_E(ptr noundef nonnull align 8 dereferenceable(8) %49, ptr noundef @_ZSt5rightRSt8ios_base)
          to label %52 unwind label %136

52:                                               ; preds = %50
  %53 = getelementptr inbounds nuw %class.Timer, ptr %17, i32 0, i32 2
  %54 = load i64, ptr %53, align 8
  %55 = invoke noundef nonnull align 8 dereferenceable(8) ptr @_ZNSolsEl(ptr noundef nonnull align 8 dereferenceable(8) %51, i64 noundef %54)
          to label %56 unwind label %136

56:                                               ; preds = %52
  %57 = invoke i32 @_ZSt4setwi(i32 noundef 11)
          to label %58 unwind label %136

58:                                               ; preds = %56
  %59 = getelementptr inbounds nuw %"struct.std::_Setw", ptr %11, i32 0, i32 0
  store i32 %57, ptr %59, align 4
  %60 = getelementptr inbounds nuw %"struct.std::_Setw", ptr %11, i32 0, i32 0
  %61 = load i32, ptr %60, align 4
  %62 = invoke noundef nonnull align 8 dereferenceable(8) ptr @_ZStlsIcSt11char_traitsIcEERSt13basic_ostreamIT_T0_ES6_St5_Setw(ptr noundef nonnull align 8 dereferenceable(8) %55, i32 %61)
          to label %63 unwind label %136

63:                                               ; preds = %58
  %64 = invoke i32 @_ZSt12setprecisioni(i32 noundef 2)
          to label %65 unwind label %136

65:                                               ; preds = %63
  %66 = getelementptr inbounds nuw %"struct.std::_Setprecision", ptr %12, i32 0, i32 0
  store i32 %64, ptr %66, align 4
  %67 = getelementptr inbounds nuw %"struct.std::_Setprecision", ptr %12, i32 0, i32 0
  %68 = load i32, ptr %67, align 4
  %69 = invoke noundef nonnull align 8 dereferenceable(8) ptr @_ZStlsIcSt11char_traitsIcEERSt13basic_ostreamIT_T0_ES6_St13_Setprecision(ptr noundef nonnull align 8 dereferenceable(8) %62, i32 %68)
          to label %70 unwind label %136

70:                                               ; preds = %65
  %71 = invoke noundef nonnull align 8 dereferenceable(8) ptr @_ZNSolsEPFRSt8ios_baseS0_E(ptr noundef nonnull align 8 dereferenceable(8) %69, ptr noundef @_ZSt5fixedRSt8ios_base)
          to label %72 unwind label %136

72:                                               ; preds = %70
  %73 = getelementptr inbounds nuw %class.Timer, ptr %17, i32 0, i32 2
  %74 = load i64, ptr %73, align 8
  %75 = sitofp i64 %74 to double
  %76 = getelementptr inbounds nuw %class.Timer, ptr %17, i32 0, i32 1
  %77 = load i32, ptr %76, align 8
  %78 = sitofp i32 %77 to double
  %79 = fdiv double %75, %78
  %80 = invoke noundef nonnull align 8 dereferenceable(8) ptr @_ZNSolsEd(ptr noundef nonnull align 8 dereferenceable(8) %71, double noundef %79)
          to label %81 unwind label %136

81:                                               ; preds = %72
  %82 = invoke i32 @_ZSt4setwi(i32 noundef 11)
          to label %83 unwind label %136

83:                                               ; preds = %81
  %84 = getelementptr inbounds nuw %"struct.std::_Setw", ptr %13, i32 0, i32 0
  store i32 %82, ptr %84, align 4
  %85 = getelementptr inbounds nuw %"struct.std::_Setw", ptr %13, i32 0, i32 0
  %86 = load i32, ptr %85, align 4
  %87 = invoke noundef nonnull align 8 dereferenceable(8) ptr @_ZStlsIcSt11char_traitsIcEERSt13basic_ostreamIT_T0_ES6_St5_Setw(ptr noundef nonnull align 8 dereferenceable(8) %80, i32 %86)
          to label %88 unwind label %136

88:                                               ; preds = %83
  %89 = invoke i32 @_ZSt12setprecisioni(i32 noundef 0)
          to label %90 unwind label %136

90:                                               ; preds = %88
  %91 = getelementptr inbounds nuw %"struct.std::_Setprecision", ptr %14, i32 0, i32 0
  store i32 %89, ptr %91, align 4
  %92 = getelementptr inbounds nuw %"struct.std::_Setprecision", ptr %14, i32 0, i32 0
  %93 = load i32, ptr %92, align 4
  %94 = invoke noundef nonnull align 8 dereferenceable(8) ptr @_ZStlsIcSt11char_traitsIcEERSt13basic_ostreamIT_T0_ES6_St13_Setprecision(ptr noundef nonnull align 8 dereferenceable(8) %87, i32 %93)
          to label %95 unwind label %136

95:                                               ; preds = %90
  %96 = invoke noundef nonnull align 8 dereferenceable(8) ptr @_ZNSolsEPFRSt8ios_baseS0_E(ptr noundef nonnull align 8 dereferenceable(8) %94, ptr noundef @_ZSt5fixedRSt8ios_base)
          to label %97 unwind label %136

97:                                               ; preds = %95
  %98 = getelementptr inbounds nuw %class.Timer, ptr %17, i32 0, i32 3
  %99 = load i64, ptr %98, align 8
  %100 = mul nsw i64 1000000, %99
  %101 = sitofp i64 %100 to double
  %102 = fdiv double %101, 1.000000e+06
  %103 = invoke noundef nonnull align 8 dereferenceable(8) ptr @_ZNSolsEd(ptr noundef nonnull align 8 dereferenceable(8) %96, double noundef %102)
          to label %104 unwind label %136

104:                                              ; preds = %97
  %105 = invoke i32 @_ZSt4setwi(i32 noundef 11)
          to label %106 unwind label %136

106:                                              ; preds = %104
  %107 = getelementptr inbounds nuw %"struct.std::_Setw", ptr %15, i32 0, i32 0
  store i32 %105, ptr %107, align 4
  %108 = getelementptr inbounds nuw %"struct.std::_Setw", ptr %15, i32 0, i32 0
  %109 = load i32, ptr %108, align 4
  %110 = invoke noundef nonnull align 8 dereferenceable(8) ptr @_ZStlsIcSt11char_traitsIcEERSt13basic_ostreamIT_T0_ES6_St5_Setw(ptr noundef nonnull align 8 dereferenceable(8) %103, i32 %109)
          to label %111 unwind label %136

111:                                              ; preds = %106
  %112 = invoke i32 @_ZSt12setprecisioni(i32 noundef 2)
          to label %113 unwind label %136

113:                                              ; preds = %111
  %114 = getelementptr inbounds nuw %"struct.std::_Setprecision", ptr %16, i32 0, i32 0
  store i32 %112, ptr %114, align 4
  %115 = getelementptr inbounds nuw %"struct.std::_Setprecision", ptr %16, i32 0, i32 0
  %116 = load i32, ptr %115, align 4
  %117 = invoke noundef nonnull align 8 dereferenceable(8) ptr @_ZStlsIcSt11char_traitsIcEERSt13basic_ostreamIT_T0_ES6_St13_Setprecision(ptr noundef nonnull align 8 dereferenceable(8) %110, i32 %116)
          to label %118 unwind label %136

118:                                              ; preds = %113
  %119 = invoke noundef nonnull align 8 dereferenceable(8) ptr @_ZNSolsEPFRSt8ios_baseS0_E(ptr noundef nonnull align 8 dereferenceable(8) %117, ptr noundef @_ZSt5fixedRSt8ios_base)
          to label %120 unwind label %136

120:                                              ; preds = %118
  %121 = getelementptr inbounds nuw %class.Timer, ptr %17, i32 0, i32 3
  %122 = load i64, ptr %121, align 8
  %123 = mul nsw i64 1000000, %122
  %124 = sitofp i64 %123 to double
  %125 = getelementptr inbounds nuw %class.Timer, ptr %17, i32 0, i32 1
  %126 = load i32, ptr %125, align 8
  %127 = sext i32 %126 to i64
  %128 = mul nsw i64 %127, 1000000
  %129 = sitofp i64 %128 to double
  %130 = fdiv double %124, %129
  %131 = invoke noundef nonnull align 8 dereferenceable(8) ptr @_ZNSolsEd(ptr noundef nonnull align 8 dereferenceable(8) %119, double noundef %130)
          to label %132 unwind label %136

132:                                              ; preds = %120
  %133 = invoke noundef nonnull align 8 dereferenceable(8) ptr @_ZStlsISt11char_traitsIcEERSt13basic_ostreamIcT_ES5_PKc(ptr noundef nonnull align 8 dereferenceable(8) %131, ptr noundef @.str.1)
          to label %134 unwind label %136

134:                                              ; preds = %132
  invoke void @_ZNKSt7__cxx1118basic_stringstreamIcSt11char_traitsIcESaIcEE3strEv(ptr dead_on_unwind writable sret(%"class.std::__cxx11::basic_string") align 8 %0, ptr noundef nonnull align 8 dereferenceable(128) %5)
          to label %135 unwind label %136

135:                                              ; preds = %134
  call void @_ZNSt7__cxx1118basic_stringstreamIcSt11char_traitsIcESaIcEED1Ev(ptr noundef nonnull align 8 dereferenceable(128) %5) #3
  ret void

136:                                              ; preds = %134, %132, %120, %118, %113, %111, %106, %104, %97, %95, %90, %88, %83, %81, %72, %70, %65, %63, %58, %56, %52, %50, %45, %43, %39, %37, %32, %30, %27, %25, %20, %2
  %137 = landingpad { ptr, i32 }
          cleanup
  %138 = extractvalue { ptr, i32 } %137, 0
  store ptr %138, ptr %7, align 8
  %139 = extractvalue { ptr, i32 } %137, 1
  store i32 %139, ptr %8, align 4
  call void @_ZNSt7__cxx1118basic_stringstreamIcSt11char_traitsIcESaIcEED1Ev(ptr noundef nonnull align 8 dereferenceable(128) %5) #3
  br label %140

140:                                              ; preds = %136
  %141 = load ptr, ptr %7, align 8
  %142 = load i32, ptr %8, align 4
  %143 = insertvalue { ptr, i32 } poison, ptr %141, 0
  %144 = insertvalue { ptr, i32 } %143, i32 %142, 1
  resume { ptr, i32 } %144
}