; Function Attrs: mustprogress uwtable
define void @_ZNK5Timer10DetailLineB5cxx11Ev(ptr dead_on_unwind noalias writable sret(%"class.std::__cxx11::basic_string") align 8 %0, ptr noundef nonnull align 8 dereferenceable(72) %1) local_unnamed_addr #3 align 2 personality ptr @__gxx_personality_v0 {
  %3 = alloca %"class.std::__cxx11::basic_stringstream", align 8
  call void @_ZNSt7__cxx1118basic_stringstreamIcSt11char_traitsIcESaIcEEC1Ev(ptr noundef nonnull align 8 dereferenceable(128) %3)
  %4 = getelementptr inbounds nuw i8, ptr %3, i64 16
  %5 = invoke noundef nonnull align 8 dereferenceable(8) ptr @_ZStlsIcSt11char_traitsIcEERSt13basic_ostreamIT_T0_ES6_St5_Setw(ptr noundef nonnull align 8 dereferenceable(8) %4, i32 15)
          to label %6 unwind label %72

6:                                                ; preds = %2
  %7 = invoke noundef nonnull align 8 dereferenceable(8) ptr @_ZNSolsEPFRSt8ios_baseS0_E(ptr noundef nonnull align 8 dereferenceable(8) %5, ptr noundef nonnull @_ZSt4leftRSt8ios_base)
          to label %8 unwind label %72

8:                                                ; preds = %6
  %9 = invoke noundef nonnull align 8 dereferenceable(8) ptr @_ZStlsIcSt11char_traitsIcESaIcEERSt13basic_ostreamIT_T0_ES7_RKNSt7__cxx1112basic_stringIS4_S5_T1_EE(ptr noundef nonnull align 8 dereferenceable(8) %7, ptr noundef nonnull align 8 dereferenceable(32) %1)
          to label %10 unwind label %72

10:                                               ; preds = %8
  %11 = invoke noundef nonnull align 8 dereferenceable(8) ptr @_ZStlsIcSt11char_traitsIcEERSt13basic_ostreamIT_T0_ES6_St5_Setw(ptr noundef nonnull align 8 dereferenceable(8) %9, i32 10)
          to label %12 unwind label %72

12:                                               ; preds = %10
  %13 = invoke noundef nonnull align 8 dereferenceable(8) ptr @_ZNSolsEPFRSt8ios_baseS0_E(ptr noundef nonnull align 8 dereferenceable(8) %11, ptr noundef nonnull @_ZSt5rightRSt8ios_base)
          to label %14 unwind label %72

14:                                               ; preds = %12
  %15 = getelementptr inbounds nuw i8, ptr %1, i64 32
  %16 = load i32, ptr %15, align 8
  %17 = invoke noundef nonnull align 8 dereferenceable(8) ptr @_ZNSolsEi(ptr noundef nonnull align 8 dereferenceable(8) %13, i32 noundef %16)
          to label %18 unwind label %72

18:                                               ; preds = %14
  %19 = invoke noundef nonnull align 8 dereferenceable(8) ptr @_ZStlsIcSt11char_traitsIcEERSt13basic_ostreamIT_T0_ES6_St5_Setw(ptr noundef nonnull align 8 dereferenceable(8) %17, i32 11)
          to label %20 unwind label %72

20:                                               ; preds = %18
  %21 = invoke noundef nonnull align 8 dereferenceable(8) ptr @_ZNSolsEPFRSt8ios_baseS0_E(ptr noundef nonnull align 8 dereferenceable(8) %19, ptr noundef nonnull @_ZSt5rightRSt8ios_base)
          to label %22 unwind label %72

22:                                               ; preds = %20
  %23 = getelementptr inbounds nuw i8, ptr %1, i64 40
  %24 = load i64, ptr %23, align 8
  %25 = invoke noundef nonnull align 8 dereferenceable(8) ptr @_ZNSolsEl(ptr noundef nonnull align 8 dereferenceable(8) %21, i64 noundef %24)
          to label %26 unwind label %72

26:                                               ; preds = %22
  %27 = invoke noundef nonnull align 8 dereferenceable(8) ptr @_ZStlsIcSt11char_traitsIcEERSt13basic_ostreamIT_T0_ES6_St5_Setw(ptr noundef nonnull align 8 dereferenceable(8) %25, i32 11)
          to label %28 unwind label %72

28:                                               ; preds = %26
  %29 = invoke noundef nonnull align 8 dereferenceable(8) ptr @_ZStlsIcSt11char_traitsIcEERSt13basic_ostreamIT_T0_ES6_St13_Setprecision(ptr noundef nonnull align 8 dereferenceable(8) %27, i32 2)
          to label %30 unwind label %72

30:                                               ; preds = %28
  %31 = invoke noundef nonnull align 8 dereferenceable(8) ptr @_ZNSolsEPFRSt8ios_baseS0_E(ptr noundef nonnull align 8 dereferenceable(8) %29, ptr noundef nonnull @_ZSt5fixedRSt8ios_base)
          to label %32 unwind label %72

32:                                               ; preds = %30
  %33 = load i64, ptr %23, align 8
  %34 = sitofp i64 %33 to double
  %35 = load i32, ptr %15, align 8
  %36 = sitofp i32 %35 to double
  %37 = fdiv double %34, %36
  %38 = invoke noundef nonnull align 8 dereferenceable(8) ptr @_ZNSolsEd(ptr noundef nonnull align 8 dereferenceable(8) %31, double noundef %37)
          to label %39 unwind label %72

39:                                               ; preds = %32
  %40 = invoke noundef nonnull align 8 dereferenceable(8) ptr @_ZStlsIcSt11char_traitsIcEERSt13basic_ostreamIT_T0_ES6_St5_Setw(ptr noundef nonnull align 8 dereferenceable(8) %38, i32 11)
          to label %41 unwind label %72

41:                                               ; preds = %39
  %42 = invoke noundef nonnull align 8 dereferenceable(8) ptr @_ZStlsIcSt11char_traitsIcEERSt13basic_ostreamIT_T0_ES6_St13_Setprecision(ptr noundef nonnull align 8 dereferenceable(8) %40, i32 0)
          to label %43 unwind label %72

43:                                               ; preds = %41
  %44 = invoke noundef nonnull align 8 dereferenceable(8) ptr @_ZNSolsEPFRSt8ios_baseS0_E(ptr noundef nonnull align 8 dereferenceable(8) %42, ptr noundef nonnull @_ZSt5fixedRSt8ios_base)
          to label %45 unwind label %72

45:                                               ; preds = %43
  %46 = getelementptr inbounds nuw i8, ptr %1, i64 48
  %47 = load i64, ptr %46, align 8
  %48 = mul nsw i64 %47, 1000000
  %49 = sitofp i64 %48 to double
  %50 = fdiv double %49, 1.000000e+06
  %51 = invoke noundef nonnull align 8 dereferenceable(8) ptr @_ZNSolsEd(ptr noundef nonnull align 8 dereferenceable(8) %44, double noundef %50)
          to label %52 unwind label %72

52:                                               ; preds = %45
  %53 = invoke noundef nonnull align 8 dereferenceable(8) ptr @_ZStlsIcSt11char_traitsIcEERSt13basic_ostreamIT_T0_ES6_St5_Setw(ptr noundef nonnull align 8 dereferenceable(8) %51, i32 11)
          to label %54 unwind label %72

54:                                               ; preds = %52
  %55 = invoke noundef nonnull align 8 dereferenceable(8) ptr @_ZStlsIcSt11char_traitsIcEERSt13basic_ostreamIT_T0_ES6_St13_Setprecision(ptr noundef nonnull align 8 dereferenceable(8) %53, i32 2)
          to label %56 unwind label %72

56:                                               ; preds = %54
  %57 = invoke noundef nonnull align 8 dereferenceable(8) ptr @_ZNSolsEPFRSt8ios_baseS0_E(ptr noundef nonnull align 8 dereferenceable(8) %55, ptr noundef nonnull @_ZSt5fixedRSt8ios_base)
          to label %58 unwind label %72

58:                                               ; preds = %56
  %59 = load i64, ptr %46, align 8
  %60 = mul nsw i64 %59, 1000000
  %61 = sitofp i64 %60 to double
  %62 = load i32, ptr %15, align 8
  %63 = sext i32 %62 to i64
  %64 = mul nsw i64 %63, 1000000
  %65 = sitofp i64 %64 to double
  %66 = fdiv double %61, %65
  %67 = invoke noundef nonnull align 8 dereferenceable(8) ptr @_ZNSolsEd(ptr noundef nonnull align 8 dereferenceable(8) %57, double noundef %66)
          to label %68 unwind label %72

68:                                               ; preds = %58
  %69 = invoke noundef nonnull align 8 dereferenceable(8) ptr @_ZStlsISt11char_traitsIcEERSt13basic_ostreamIcT_ES5_PKc(ptr noundef nonnull align 8 dereferenceable(8) %67, ptr noundef nonnull @.str.1)
          to label %70 unwind label %72

70:                                               ; preds = %68
  invoke void @_ZNKSt7__cxx1118basic_stringstreamIcSt11char_traitsIcESaIcEE3strEv(ptr dead_on_unwind writable sret(%"class.std::__cxx11::basic_string") align 8 %0, ptr noundef nonnull align 8 dereferenceable(128) %3)
          to label %71 unwind label %72

71:                                               ; preds = %70
  call void @_ZNSt7__cxx1118basic_stringstreamIcSt11char_traitsIcESaIcEED1Ev(ptr noundef nonnull align 8 dereferenceable(128) %3) #9
  ret void

72:                                               ; preds = %70, %68, %58, %56, %54, %52, %45, %43, %41, %39, %32, %30, %28, %26, %22, %20, %18, %14, %12, %10, %8, %6, %2
  %73 = landingpad { ptr, i32 }
          cleanup
  call void @_ZNSt7__cxx1118basic_stringstreamIcSt11char_traitsIcESaIcEED1Ev(ptr noundef nonnull align 8 dereferenceable(128) %3) #9
  resume { ptr, i32 } %73
}